; Function Attrs: mustprogress uwtable
define hidden void @_ZN13bound_manager5resetEv(ptr noundef nonnull align 8 dereferenceable(128) %this) local_unnamed_addr #3 align 2 {
entry:
  %m_bounded_vars = getelementptr inbounds i8, ptr %this, i64 112
  %m_nodes.i = getelementptr inbounds i8, ptr %this, i64 120
  %0 = load ptr, ptr %m_nodes.i, align 8
  %cmp.i.i = icmp eq ptr %0, null
  br i1 %cmp.i.i, label %_ZN15ref_vector_coreI4expr19ref_manager_wrapperIS0_11ast_managerEE8finalizeEv.exit, label %_ZNK6vectorIP4exprLb0EjE4sizeEv.exit.i

_ZNK6vectorIP4exprLb0EjE4sizeEv.exit.i:           ; preds = %entry
  %arrayidx.i.i = getelementptr inbounds i8, ptr %0, i64 -4
  %1 = load i32, ptr %arrayidx.i.i, align 4
  %2 = zext i32 %1 to i64
  %add.ptr.i = getelementptr inbounds ptr, ptr %0, i64 %2
  %cmp3.i.not.i = icmp eq i32 %1, 0
  br i1 %cmp3.i.not.i, label %if.then.i.i.i, label %for.body.i.i

for.body.i.i:                                     ; preds = %_ZNK6vectorIP4exprLb0EjE4sizeEv.exit.i, %_ZN15ref_vector_coreI4expr19ref_manager_wrapperIS0_11ast_managerEE7dec_refEPS0_.exit.i.i
  %it.04.i.i = phi ptr [ %incdec.ptr.i.i, %_ZN15ref_vector_coreI4expr19ref_manager_wrapperIS0_11ast_managerEE7dec_refEPS0_.exit.i.i ], [ %0, %_ZNK6vectorIP4exprLb0EjE4sizeEv.exit.i ]
  %3 = load ptr, ptr %it.04.i.i, align 8
  %4 = load ptr, ptr %m_bounded_vars, align 8
  %tobool.not.i.i.i.i.i = icmp eq ptr %3, null
  br i1 %tobool.not.i.i.i.i.i, label %_ZN15ref_vector_coreI4expr19ref_manager_wrapperIS0_11ast_managerEE7dec_refEPS0_.exit.i.i, label %if.then.i.i.i.i.i

if.then.i.i.i.i.i:                                ; preds = %for.body.i.i
  %m_ref_count.i.i.i.i.i.i = getelementptr inbounds i8, ptr %3, i64 8
  %5 = load i32, ptr %m_ref_count.i.i.i.i.i.i, align 4
  %dec.i.i.i.i.i.i = add i32 %5, -1
  store i32 %dec.i.i.i.i.i.i, ptr %m_ref_count.i.i.i.i.i.i, align 4
  %cmp.i.i.i.i.i = icmp eq i32 %dec.i.i.i.i.i.i, 0
  br i1 %cmp.i.i.i.i.i, label %if.then2.i.i.i.i.i, label %_ZN15ref_vector_coreI4expr19ref_manager_wrapperIS0_11ast_managerEE7dec_refEPS0_.exit.i.i

if.then2.i.i.i.i.i:                               ; preds = %if.then.i.i.i.i.i
  tail call void @_ZN11ast_manager11delete_nodeEP3ast(ptr noundef nonnull align 8 dereferenceable(976) %4, ptr noundef nonnull %3)
  br label %_ZN15ref_vector_coreI4expr19ref_manager_wrapperIS0_11ast_managerEE7dec_refEPS0_.exit.i.i

_ZN15ref_vector_coreI4expr19ref_manager_wrapperIS0_11ast_managerEE7dec_refEPS0_.exit.i.i: ; preds = %if.then2.i.i.i.i.i, %if.then.i.i.i.i.i, %for.body.i.i
  %incdec.ptr.i.i = getelementptr inbounds i8, ptr %it.04.i.i, i64 8
  %cmp.i1.i = icmp ult ptr %incdec.ptr.i.i, %add.ptr.i
  br i1 %cmp.i1.i, label %for.body.i.i, label %_ZN15ref_vector_coreI4expr19ref_manager_wrapperIS0_11ast_managerEE13dec_range_refEPKPS0_S7_.exit.i, !llvm.loop !7

_ZN15ref_vector_coreI4expr19ref_manager_wrapperIS0_11ast_managerEE13dec_range_refEPKPS0_S7_.exit.i: ; preds = %_ZN15ref_vector_coreI4expr19ref_manager_wrapperIS0_11ast_managerEE7dec_refEPS0_.exit.i.i
  %.pre.i = load ptr, ptr %m_nodes.i, align 8
  %tobool.not.i.i.i = icmp eq ptr %.pre.i, null
  br i1 %tobool.not.i.i.i, label %_ZN15ref_vector_coreI4expr19ref_manager_wrapperIS0_11ast_managerEE8finalizeEv.exit, label %if.then.i.i.i

if.then.i.i.i:                                    ; preds = %_ZN15ref_vector_coreI4expr19ref_manager_wrapperIS0_11ast_managerEE13dec_range_refEPKPS0_S7_.exit.i, %_ZNK6vectorIP4exprLb0EjE4sizeEv.exit.i
  %6 = phi ptr [ %.pre.i, %_ZN15ref_vector_coreI4expr19ref_manager_wrapperIS0_11ast_managerEE13dec_range_refEPKPS0_S7_.exit.i ], [ %0, %_ZNK6vectorIP4exprLb0EjE4sizeEv.exit.i ]
  %add.ptr.i.i.i.i = getelementptr inbounds i8, ptr %6, i64 -8
  tail call void @_ZN6memory10deallocateEPv(ptr noundef nonnull %add.ptr.i.i.i.i)
  br label %_ZN15ref_vector_coreI4expr19ref_manager_wrapperIS0_11ast_managerEE8finalizeEv.exit

_ZN15ref_vector_coreI4expr19ref_manager_wrapperIS0_11ast_managerEE8finalizeEv.exit: ; preds = %entry, %_ZN15ref_vector_coreI4expr19ref_manager_wrapperIS0_11ast_managerEE13dec_range_refEPKPS0_S7_.exit.i, %if.then.i.i.i
  store ptr null, ptr %m_nodes.i, align 8
  %m_lowers = getelementptr inbounds i8, ptr %this, i64 16
  tail call void @_ZN14core_hashtableIN7obj_mapI4exprSt4pairI8rationalbEE13obj_map_entryE8obj_hashINS5_8key_dataEE10default_eqIS8_EE8finalizeEv(ptr noundef nonnull align 8 dereferenceable(20) %m_lowers)
  %m_uppers = getelementptr inbounds i8, ptr %this, i64 40
  tail call void @_ZN14core_hashtableIN7obj_mapI4exprSt4pairI8rationalbEE13obj_map_entryE8obj_hashINS5_8key_dataEE10default_eqIS8_EE8finalizeEv(ptr noundef nonnull align 8 dereferenceable(20) %m_uppers)
  %m_lower_deps = getelementptr inbounds i8, ptr %this, i64 64
  tail call void @_ZN14core_hashtableIN7obj_mapI4exprPN18dependency_managerIN11ast_manager22expr_dependency_configEE10dependencyEE13obj_map_entryE8obj_hashINS8_8key_dataEE10default_eqISB_EE8finalizeEv(ptr noundef nonnull align 8 dereferenceable(20) %m_lower_deps)
  %m_upper_deps = getelementptr inbounds i8, ptr %this, i64 88
  tail call void @_ZN14core_hashtableIN7obj_mapI4exprPN18dependency_managerIN11ast_manager22expr_dependency_configEE10dependencyEE13obj_map_entryE8obj_hashINS8_8key_dataEE10default_eqISB_EE8finalizeEv(ptr noundef nonnull align 8 dereferenceable(20) %m_upper_deps)
  ret void
}